target datalayout = "e-m:e-p270:32:32-p271:32:32-p272:64:64-i64:64-i128:128-f80:128-n8:16:32:64-S128"
target triple = "x86_64-pc-linux-gnu"

%"class.btInverseDynamicsBullet3::MultiBodyTree" = type { i8, i8, i8, ptr, ptr }

; Function Attrs: inlinehint mustprogress nounwind uwtable
define linkonce_odr dso_local void @_ZN24btInverseDynamicsBullet313MultiBodyTree9InitCachedlEPv(ptr noundef %0) #5 comdat align 2 personality ptr @__gxx_personality_v0 {
  %2 = alloca ptr, align 8
  store ptr %0, ptr %2, align 8, !tbaa !25
  %3 = load ptr, ptr %2, align 8, !tbaa !25
  invoke void @_Z21b3AlignedFreeInternalPv(ptr noundef %3)
          to label %4 unwind label %5

4:                                                ; preds = %1
  ret void

5:                                                ; preds = %1
  %6 = landingpad { ptr, i32 }
          catch ptr null
  %7 = extractvalue { ptr, i32 } %6, 0
  call void @__clang_call_terminate(ptr %7) #13
  unreachable
}

; Function Attrs: inlinehint mustprogress nounwind uwtable
define linkonce_odr dso_local void @_ZN24btInverseDynamicsBullet313MultiBodyTree13MultiBodyImpldlEPv(ptr noundef %0) #5 comdat align 2 personality ptr @__gxx_personality_v0 {
  %2 = alloca ptr, align 8
  store ptr %0, ptr %2, align 8, !tbaa !25
  %3 = load ptr, ptr %2, align 8, !tbaa !25
  invoke void @_Z21b3AlignedFreeInternalPv(ptr noundef %3)
          to label %4 unwind label %5

4:                                                ; preds = %1
  ret void

5:                                                ; preds = %1
  %6 = landingpad { ptr, i32 }
          catch ptr null
  %7 = extractvalue { ptr, i32 } %6, 0
  call void @__clang_call_terminate(ptr %7) #13
  unreachable
}

; Function Attrs: mustprogress nounwind uwtable
define dso_local void @_ZN24btInverseDynamicsBullet313MultiBodyTreeD2Ev(ptr noundef nonnull align 8 dereferenceable(24) %0) unnamed_addr #1 align 2 {
  %2 = alloca ptr, align 8
  store ptr %0, ptr %2, align 8, !tbaa !12
  %3 = load ptr, ptr %2, align 8
  %4 = getelementptr inbounds nuw %"class.btInverseDynamicsBullet3::MultiBodyTree", ptr %3, i32 0, i32 3
  %5 = load ptr, ptr %4, align 8, !tbaa !21
  %6 = icmp eq ptr %5, null
  br i1 %6, label %8, label %7

7:                                                ; preds = %1
  call void @_ZN24btInverseDynamicsBullet313MultiBodyTree13MultiBodyImplD2Ev(ptr noundef nonnull align 8 dereferenceable(400) %5) #12
  call void @_ZN24btInverseDynamicsBullet313MultiBodyTree13MultiBodyImpldlEPv(ptr noundef %5) #12
  br label %8

8:                                                ; preds = %7, %1
  %9 = getelementptr inbounds nuw %"class.btInverseDynamicsBullet3::MultiBodyTree", ptr %3, i32 0, i32 4
  %10 = load ptr, ptr %9, align 8, !tbaa !22
  %11 = icmp eq ptr %10, null
  br i1 %11, label %13, label %12

12:                                               ; preds = %8
  call void @_ZN24btInverseDynamicsBullet313MultiBodyTree9InitCacheD2Ev(ptr noundef nonnull align 8 dereferenceable(172) %10) #12
  call void @_ZN24btInverseDynamicsBullet313MultiBodyTree9InitCachedlEPv(ptr noundef %10) #12
  br label %13

13:                                               ; preds = %12, %8
  ret void
}