; Function Attrs: mustprogress nounwind uwtable
define dso_local void @_ZN24btInverseDynamicsBullet313MultiBodyTreeD2Ev(ptr noundef nonnull readonly align 8 captures(none) dereferenceable(24) %0) unnamed_addr #2 align 2 personality ptr @__gxx_personality_v0 {
  %2 = getelementptr inbounds nuw i8, ptr %0, i64 8
  %3 = load ptr, ptr %2, align 8, !tbaa !15
  %4 = icmp eq ptr %3, null
  br i1 %4, label %_ZN24btInverseDynamicsBullet313MultiBodyTree13MultiBodyImpldlEPv.exit, label %5

5:                                                ; preds = %1
  tail call void @_ZN24btInverseDynamicsBullet313MultiBodyTree13MultiBodyImplD2Ev(ptr noundef nonnull align 8 dereferenceable(400) %3) #15
  invoke void @_Z21b3AlignedFreeInternalPv(ptr noundef nonnull %3)
          to label %_ZN24btInverseDynamicsBullet313MultiBodyTree13MultiBodyImpldlEPv.exit unwind label %6

6:                                                ; preds = %5
  %7 = landingpad { ptr, i32 }
          catch ptr null
  %8 = extractvalue { ptr, i32 } %7, 0
  tail call void @__clang_call_terminate(ptr %8) #14
  unreachable

_ZN24btInverseDynamicsBullet313MultiBodyTree13MultiBodyImpldlEPv.exit: ; preds = %5, %1
  %9 = getelementptr inbounds nuw i8, ptr %0, i64 16
  %10 = load ptr, ptr %9, align 8, !tbaa !14
  %11 = icmp eq ptr %10, null
  br i1 %11, label %_ZN24btInverseDynamicsBullet313MultiBodyTree9InitCachedlEPv.exit, label %12

12:                                               ; preds = %_ZN24btInverseDynamicsBullet313MultiBodyTree13MultiBodyImpldlEPv.exit
  tail call void @_ZN24btInverseDynamicsBullet313MultiBodyTree9InitCacheD2Ev(ptr noundef nonnull align 8 dereferenceable(172) %10) #15
  invoke void @_Z21b3AlignedFreeInternalPv(ptr noundef nonnull %10)
          to label %_ZN24btInverseDynamicsBullet313MultiBodyTree9InitCachedlEPv.exit unwind label %13

13:                                               ; preds = %12
  %14 = landingpad { ptr, i32 }
          catch ptr null
  %15 = extractvalue { ptr, i32 } %14, 0
  tail call void @__clang_call_terminate(ptr %15) #14
  unreachable

_ZN24btInverseDynamicsBullet313MultiBodyTree9InitCachedlEPv.exit: ; preds = %12, %_ZN24btInverseDynamicsBullet313MultiBodyTree13MultiBodyImpldlEPv.exit
  ret void
}